target datalayout = "e-m:e-p270:32:32-p271:32:32-p272:64:64-i64:64-i128:128-f80:128-n8:16:32:64-S128"
target triple = "x86_64-pc-linux-gnu"

@.str.376 = private unnamed_addr constant [29 x i8] c"%s:%u: failed assertion \22%s\22\00", align 1
@.str.377 = private unnamed_addr constant [32 x i8] c"epan/dissectors/packet-hartip.c\00", align 1
@.str.378 = private unnamed_addr constant [8 x i8] c"i < 256\00", align 1

; Function Attrs: null_pointer_is_valid sspstrong uwtable
define internal i32 @dissect_packAscii(ptr noundef %0, i32 noundef %1, ptr noundef %2, i32 noundef %3, i32 noundef %4) #0 {
  %6 = alloca ptr, align 8
  %7 = alloca i32, align 4
  %8 = alloca ptr, align 8
  %9 = alloca i32, align 4
  %10 = alloca i32, align 4
  %11 = alloca i16, align 2
  %12 = alloca i16, align 2
  %13 = alloca i16, align 2
  %14 = alloca i16, align 2
  %15 = alloca i32, align 4
  %16 = alloca i32, align 4
  %17 = alloca [4 x i16], align 2
  %18 = alloca ptr, align 8
  %19 = alloca ptr, align 8
  store ptr %0, ptr %6, align 8
  store i32 %1, ptr %7, align 4
  store ptr %2, ptr %8, align 8
  store i32 %3, ptr %9, align 4
  store i32 %4, ptr %10, align 4
  call void @llvm.lifetime.start.p0(i64 2, ptr %11) #5
  call void @llvm.lifetime.start.p0(i64 2, ptr %12) #5
  call void @llvm.lifetime.start.p0(i64 2, ptr %13) #5
  call void @llvm.lifetime.start.p0(i64 2, ptr %14) #5
  call void @llvm.lifetime.start.p0(i64 4, ptr %15) #5
  call void @llvm.lifetime.start.p0(i64 4, ptr %16) #5
  store i32 0, ptr %16, align 4
  call void @llvm.lifetime.start.p0(i64 8, ptr %17) #5
  call void @llvm.lifetime.start.p0(i64 8, ptr %18) #5
  call void @llvm.lifetime.start.p0(i64 8, ptr %19) #5
  store ptr null, ptr %19, align 8
  %20 = call ptr @wmem_packet_scope()
  %21 = load i32, ptr %10, align 4
  %22 = sext i32 %21 to i64
  %23 = call noalias ptr @wmem_alloc0(ptr noundef %20, i64 noundef %22) #6
  store ptr %23, ptr %18, align 8
  %24 = load ptr, ptr %8, align 8
  %25 = load ptr, ptr %18, align 8
  %26 = load i32, ptr %9, align 4
  %27 = load i32, ptr %10, align 4
  %28 = sext i32 %27 to i64
  %29 = call ptr @tvb_memcpy(ptr noundef %24, ptr noundef %25, i32 noundef %26, i64 noundef %28)
  %30 = call ptr @wmem_packet_scope()
  %31 = load i32, ptr %10, align 4
  %32 = sdiv i32 %31, 3
  %33 = mul i32 %32, 4
  %34 = add i32 %33, 1
  %35 = sext i32 %34 to i64
  %36 = call noalias ptr @wmem_alloc(ptr noundef %30, i64 noundef %35) #6
  store ptr %36, ptr %19, align 8
  store i32 0, ptr %15, align 4
  %37 = load i32, ptr %10, align 4
  %38 = sdiv i32 %37, 3
  %39 = trunc i32 %38 to i16
  store i16 %39, ptr %13, align 2
  store i16 0, ptr %12, align 2
  br label %40

40:                                               ; preds = %145, %5
  %41 = load i16, ptr %12, align 2
  %42 = zext i16 %41 to i32
  %43 = load i16, ptr %13, align 2
  %44 = zext i16 %43 to i32
  %45 = icmp slt i32 %42, %44
  br i1 %45, label %46, label %148

46:                                               ; preds = %40
  %47 = load ptr, ptr %18, align 8
  %48 = load i32, ptr %15, align 4
  %49 = sext i32 %48 to i64
  %50 = getelementptr i8, ptr %47, i64 %49
  %51 = load i8, ptr %50, align 1
  %52 = zext i8 %51 to i32
  %53 = ashr i32 %52, 2
  %54 = trunc i32 %53 to i16
  %55 = getelementptr [4 x i16], ptr %17, i64 0, i64 0
  store i16 %54, ptr %55, align 2
  %56 = load ptr, ptr %18, align 8
  %57 = load i32, ptr %15, align 4
  %58 = sext i32 %57 to i64
  %59 = getelementptr i8, ptr %56, i64 %58
  %60 = load i8, ptr %59, align 1
  %61 = zext i8 %60 to i32
  %62 = shl i32 %61, 4
  %63 = and i32 %62, 48
  %64 = load ptr, ptr %18, align 8
  %65 = load i32, ptr %15, align 4
  %66 = add i32 %65, 1
  %67 = sext i32 %66 to i64
  %68 = getelementptr i8, ptr %64, i64 %67
  %69 = load i8, ptr %68, align 1
  %70 = zext i8 %69 to i32
  %71 = ashr i32 %70, 4
  %72 = or i32 %63, %71
  %73 = trunc i32 %72 to i16
  %74 = getelementptr [4 x i16], ptr %17, i64 0, i64 1
  store i16 %73, ptr %74, align 2
  %75 = load ptr, ptr %18, align 8
  %76 = load i32, ptr %15, align 4
  %77 = add i32 %76, 1
  %78 = sext i32 %77 to i64
  %79 = getelementptr i8, ptr %75, i64 %78
  %80 = load i8, ptr %79, align 1
  %81 = zext i8 %80 to i32
  %82 = shl i32 %81, 2
  %83 = and i32 %82, 60
  %84 = load ptr, ptr %18, align 8
  %85 = load i32, ptr %15, align 4
  %86 = add i32 %85, 2
  %87 = sext i32 %86 to i64
  %88 = getelementptr i8, ptr %84, i64 %87
  %89 = load i8, ptr %88, align 1
  %90 = zext i8 %89 to i32
  %91 = ashr i32 %90, 6
  %92 = or i32 %83, %91
  %93 = trunc i32 %92 to i16
  %94 = getelementptr [4 x i16], ptr %17, i64 0, i64 2
  store i16 %93, ptr %94, align 2
  %95 = load ptr, ptr %18, align 8
  %96 = load i32, ptr %15, align 4
  %97 = add i32 %96, 2
  %98 = sext i32 %97 to i64
  %99 = getelementptr i8, ptr %95, i64 %98
  %100 = load i8, ptr %99, align 1
  %101 = zext i8 %100 to i32
  %102 = and i32 %101, 63
  %103 = trunc i32 %102 to i16
  %104 = getelementptr [4 x i16], ptr %17, i64 0, i64 3
  store i16 %103, ptr %104, align 2
  %105 = load i32, ptr %15, align 4
  %106 = add i32 %105, 3
  store i32 %106, ptr %15, align 4
  store i16 0, ptr %11, align 2
  br label %107

107:                                              ; preds = %141, %46
  %108 = load i16, ptr %11, align 2
  %109 = zext i16 %108 to i32
  %110 = icmp slt i32 %109, 4
  br i1 %110, label %111, label %144

111:                                              ; preds = %107
  %112 = load i16, ptr %11, align 2
  %113 = zext i16 %112 to i64
  %114 = getelementptr [4 x i16], ptr %17, i64 0, i64 %113
  %115 = load i16, ptr %114, align 2
  %116 = zext i16 %115 to i32
  %117 = and i32 %116, 32
  %118 = shl i32 %117, 1
  %119 = xor i32 %118, 64
  %120 = trunc i32 %119 to i16
  store i16 %120, ptr %14, align 2
  %121 = load i32, ptr %16, align 4
  %122 = icmp slt i32 %121, 256
  br i1 %122, label %123, label %124

123:                                              ; preds = %111
  br label %126

124:                                              ; preds = %111
  call void (ptr, ...) @proto_report_dissector_bug(ptr noundef @.str.376, ptr noundef @.str.377, i32 noundef 517, ptr noundef @.str.378) #7
  unreachable

125:                                              ; No predecessors!
  br label %126

126:                                              ; preds = %125, %123
  %127 = load i16, ptr %11, align 2
  %128 = zext i16 %127 to i64
  %129 = getelementptr [4 x i16], ptr %17, i64 0, i64 %128
  %130 = load i16, ptr %129, align 2
  %131 = zext i16 %130 to i32
  %132 = load i16, ptr %14, align 2
  %133 = zext i16 %132 to i32
  %134 = or i32 %131, %133
  %135 = trunc i32 %134 to i8
  %136 = load ptr, ptr %19, align 8
  %137 = load i32, ptr %16, align 4
  %138 = add i32 %137, 1
  store i32 %138, ptr %16, align 4
  %139 = sext i32 %137 to i64
  %140 = getelementptr i8, ptr %136, i64 %139
  store i8 %135, ptr %140, align 1
  br label %141

141:                                              ; preds = %126
  %142 = load i16, ptr %11, align 2
  %143 = add i16 %142, 1
  store i16 %143, ptr %11, align 2
  br label %107, !llvm.loop !11

144:                                              ; preds = %107
  br label %145

145:                                              ; preds = %144
  %146 = load i16, ptr %12, align 2
  %147 = add i16 %146, 1
  store i16 %147, ptr %12, align 2
  br label %40, !llvm.loop !12

148:                                              ; preds = %40
  %149 = load ptr, ptr %19, align 8
  %150 = load i32, ptr %16, align 4
  %151 = sext i32 %150 to i64
  %152 = getelementptr i8, ptr %149, i64 %151
  store i8 0, ptr %152, align 1
  %153 = load ptr, ptr %6, align 8
  %154 = load i32, ptr %7, align 4
  %155 = load ptr, ptr %8, align 8
  %156 = load i32, ptr %9, align 4
  %157 = load i32, ptr %10, align 4
  %158 = load ptr, ptr %19, align 8
  %159 = call ptr @proto_tree_add_string(ptr noundef %153, i32 noundef %154, ptr noundef %155, i32 noundef %156, i32 noundef %157, ptr noundef %158)
  %160 = load i32, ptr %10, align 4
  call void @llvm.lifetime.end.p0(i64 8, ptr %19) #5
  call void @llvm.lifetime.end.p0(i64 8, ptr %18) #5
  call void @llvm.lifetime.end.p0(i64 8, ptr %17) #5
  call void @llvm.lifetime.end.p0(i64 4, ptr %16) #5
  call void @llvm.lifetime.end.p0(i64 4, ptr %15) #5
  call void @llvm.lifetime.end.p0(i64 2, ptr %14) #5
  call void @llvm.lifetime.end.p0(i64 2, ptr %13) #5
  call void @llvm.lifetime.end.p0(i64 2, ptr %12) #5
  call void @llvm.lifetime.end.p0(i64 2, ptr %11) #5
  ret i32 %160
}